(lp0
I588
aI666
aI742
aI1087
aI1136
aI1196
aI1197
aI1278
aI1531
aI1719
aI1848
aI1908
aI2069
aI2234
aI2267
aI2303
aI2549
aI2668
aI2739
aI2770
aI2832
aI2843
aI2875
aI3032
aI3223
aI3299
aI3347
aI3523
aI3606
aI3716
aI3765
aI3781
aI3984
aI4274
aI4367
aI4487
aI4502
aI4720
aI4733
aI4878
aI5019
aI5265
aI5324
aI5357
aI5527
aI5709
aI5719
aI5966
aI6025
aI6115
aI6461
aI6501
aI6552
aI6564
aI6803
aI6983
aI6991
aI7049
aI7090
aI7188
aI7362
a.